; ModuleID = '60/678.c'
source_filename = "60/678.c"
target datalayout = "e-m:e-p270:32:32-p271:32:32-p272:64:64-i64:64-f80:128-n8:16:32:64-S128"
target triple = "x86_64-pc-linux-gnu"

@.str = private unnamed_addr constant [3 x i8] c"%d\00", align 1
@.str.1 = private unnamed_addr constant [6 x i8] c"empty\00", align 1
@.str.2 = private unnamed_addr constant [7 x i8] c"%d %d\0A\00", align 1

; Function Attrs: noinline nounwind uwtable
define dso_local i32 @main() #0 {
  %1 = alloca i32, align 4
  %2 = alloca i32, align 4
  %3 = alloca i32, align 4
  %4 = alloca i32, align 4
  %5 = alloca i32, align 4
  %6 = alloca i32, align 4
  %7 = alloca i32, align 4
  %8 = alloca [10000 x i32], align 16
  store i32 0, i32* %1, align 4
  store i32 0, i32* %6, align 4
  store i32 0, i32* %7, align 4
  %9 = call i32 (i8*, ...) @__isoc99_scanf(i8* getelementptr inbounds ([3 x i8], [3 x i8]* @.str, i64 0, i64 0), i32* %4)
  %10 = load i32, i32* %4, align 4
  %11 = icmp slt i32 %10, 5
  br i1 %11, label %12, label %14

12:                                               ; preds = %0
  %13 = call i32 (i8*, ...) @printf(i8* getelementptr inbounds ([6 x i8], [6 x i8]* @.str.1, i64 0, i64 0))
  br label %90

14:                                               ; preds = %0
  store i32 2, i32* %3, align 4
  br label %15

15:                                               ; preds = %53, %14
  %16 = load i32, i32* %3, align 4
  %17 = load i32, i32* %4, align 4
  %18 = icmp sle i32 %16, %17
  br i1 %18, label %19, label %56

19:                                               ; preds = %15
  store i32 2, i32* %2, align 4
  br label %20

20:                                               ; preds = %35, %19
  %21 = load i32, i32* %2, align 4
  %22 = sitofp i32 %21 to double
  %23 = load i32, i32* %3, align 4
  %24 = sitofp i32 %23 to double
  %25 = call double @sqrt(double %24) #3
  %26 = fcmp ole double %22, %25
  br i1 %26, label %27, label %38

27:                                               ; preds = %20
  %28 = load i32, i32* %3, align 4
  %29 = load i32, i32* %2, align 4
  %30 = srem i32 %28, %29
  store i32 %30, i32* %5, align 4
  %31 = load i32, i32* %5, align 4
  %32 = icmp eq i32 %31, 0
  br i1 %32, label %33, label %34

33:                                               ; preds = %27
  br label %38

34:                                               ; preds = %27
  br label %35

35:                                               ; preds = %34
  %36 = load i32, i32* %2, align 4
  %37 = add nsw i32 %36, 1
  store i32 %37, i32* %2, align 4
  br label %20

38:                                               ; preds = %33, %20
  %39 = load i32, i32* %2, align 4
  %40 = sitofp i32 %39 to double
  %41 = load i32, i32* %3, align 4
  %42 = sitofp i32 %41 to double
  %43 = call double @sqrt(double %42) #3
  %44 = fcmp ogt double %40, %43
  br i1 %44, label %45, label %52

45:                                               ; preds = %38
  %46 = load i32, i32* %3, align 4
  %47 = load i32, i32* %7, align 4
  %48 = sext i32 %47 to i64
  %49 = getelementptr inbounds [10000 x i32], [10000 x i32]* %8, i64 0, i64 %48
  store i32 %46, i32* %49, align 4
  %50 = load i32, i32* %7, align 4
  %51 = add nsw i32 %50, 1
  store i32 %51, i32* %7, align 4
  br label %52

52:                                               ; preds = %45, %38
  br label %53

53:                                               ; preds = %52
  %54 = load i32, i32* %3, align 4
  %55 = add nsw i32 %54, 1
  store i32 %55, i32* %3, align 4
  br label %15

56:                                               ; preds = %15
  store i32 0, i32* %7, align 4
  br label %57

57:                                               ; preds = %84, %56
  %58 = load i32, i32* %7, align 4
  %59 = icmp sle i32 %58, 10000
  br i1 %59, label %60, label %87

60:                                               ; preds = %57
  %61 = load i32, i32* %7, align 4
  %62 = add nsw i32 %61, 1
  %63 = sext i32 %62 to i64
  %64 = getelementptr inbounds [10000 x i32], [10000 x i32]* %8, i64 0, i64 %63
  %65 = load i32, i32* %64, align 4
  %66 = load i32, i32* %7, align 4
  %67 = sext i32 %66 to i64
  %68 = getelementptr inbounds [10000 x i32], [10000 x i32]* %8, i64 0, i64 %67
  %69 = load i32, i32* %68, align 4
  %70 = sub nsw i32 %65, %69
  %71 = icmp eq i32 %70, 2
  br i1 %71, label %72, label %83

72:                                               ; preds = %60
  %73 = load i32, i32* %7, align 4
  %74 = sext i32 %73 to i64
  %75 = getelementptr inbounds [10000 x i32], [10000 x i32]* %8, i64 0, i64 %74
  %76 = load i32, i32* %75, align 4
  %77 = load i32, i32* %7, align 4
  %78 = add nsw i32 %77, 1
  %79 = sext i32 %78 to i64
  %80 = getelementptr inbounds [10000 x i32], [10000 x i32]* %8, i64 0, i64 %79
  %81 = load i32, i32* %80, align 4
  %82 = call i32 (i8*, ...) @printf(i8* getelementptr inbounds ([7 x i8], [7 x i8]* @.str.2, i64 0, i64 0), i32 %76, i32 %81)
  br label %83

83:                                               ; preds = %72, %60
  br label %84

84:                                               ; preds = %83
  %85 = load i32, i32* %7, align 4
  %86 = add nsw i32 %85, 1
  store i32 %86, i32* %7, align 4
  br label %57

87:                                               ; preds = %57
  %88 = call i32 @getchar()
  %89 = call i32 @getchar()
  br label %90

90:                                               ; preds = %87, %12
  %91 = load i32, i32* %1, align 4
  ret i32 %91
}

declare dso_local i32 @__isoc99_scanf(i8*, ...) #1

declare dso_local i32 @printf(i8*, ...) #1

; Function Attrs: nounwind
declare dso_local double @sqrt(double) #2

declare dso_local i32 @getchar() #1


!llvm.module.flags = !{!0}
!llvm.ident = !{!1}

!0 = !{i32 1, !"wchar_size", i32 4}
!1 = !{!"clang version 10.0.0-4ubuntu1 "}
