; ModuleID = 'source-C-CXX/59/678.c'
source_filename = "source-C-CXX/59/678.c"
target datalayout = "e-m:e-p270:32:32-p271:32:32-p272:64:64-i64:64-f80:128-n8:16:32:64-S128"
target triple = "x86_64-pc-linux-gnu"

%struct._IO_FILE = type { i32, i8*, i8*, i8*, i8*, i8*, i8*, i8*, i8*, i8*, i8*, i8*, %struct._IO_marker*, %struct._IO_FILE*, i32, i32, i64, i16, i8, [1 x i8], i8*, i64, %struct._IO_codecvt*, %struct._IO_wide_data*, %struct._IO_FILE*, i8*, i64, i32, [20 x i8] }
%struct._IO_marker = type opaque
%struct._IO_codecvt = type opaque
%struct._IO_wide_data = type opaque

@.str = private unnamed_addr constant [3 x i8] c"%d\00", align 1
@.str.1 = private unnamed_addr constant [6 x i8] c"empty\00", align 1
@.str.2 = private unnamed_addr constant [7 x i8] c"%d %d\0A\00", align 1
@stdin = external local_unnamed_addr global %struct._IO_FILE*, align 8

; Function Attrs: nofree nounwind sspstrong uwtable
define dso_local i32 @main() local_unnamed_addr #0 {
  %1 = alloca i32, align 4
  %2 = alloca [10000 x i32], align 16
  %3 = bitcast i32* %1 to i8*
  call void @llvm.lifetime.start.p0i8(i64 4, i8* nonnull %3) #4
  %4 = bitcast [10000 x i32]* %2 to i8*
  call void @llvm.lifetime.start.p0i8(i64 40000, i8* nonnull %4) #4
  %5 = call i32 (i8*, ...) @__isoc99_scanf(i8* getelementptr inbounds ([3 x i8], [3 x i8]* @.str, i64 0, i64 0), i32* nonnull %1)
  %6 = load i32, i32* %1, align 4, !tbaa !5
  %7 = icmp slt i32 %6, 5
  br i1 %7, label %8, label %10

8:                                                ; preds = %0
  %9 = call i32 (i8*, ...) @printf(i8* nonnull dereferenceable(1) getelementptr inbounds ([6 x i8], [6 x i8]* @.str.1, i64 0, i64 0))
  br label %61

10:                                               ; preds = %0, %39
  %11 = phi i32 [ %40, %39 ], [ 0, %0 ]
  %12 = phi i32 [ %41, %39 ], [ 2, %0 ]
  %13 = sitofp i32 %12 to double
  %14 = call double @sqrt(double %13) #4
  %15 = fcmp ult double %14, 2.000000e+00
  %16 = and i32 %12, 1
  %17 = icmp eq i32 %16, 0
  %18 = select i1 %15, i1 true, i1 %17
  br i1 %18, label %31, label %22

19:                                               ; preds = %39
  %20 = getelementptr inbounds [10000 x i32], [10000 x i32]* %2, i64 0, i64 0
  %21 = load i32, i32* %20, align 16, !tbaa !5
  br label %44

22:                                               ; preds = %10, %27
  %23 = phi i32 [ %30, %27 ], [ 3, %10 ]
  %24 = sitofp i32 %23 to double
  %25 = call double @sqrt(double %13) #4
  %26 = fcmp ult double %25, %24
  br i1 %26, label %31, label %27, !llvm.loop !9

27:                                               ; preds = %22
  %28 = urem i32 %12, %23
  %29 = icmp eq i32 %28, 0
  %30 = add nuw nsw i32 %23, 1
  br i1 %29, label %31, label %22, !llvm.loop !9

31:                                               ; preds = %27, %22, %10
  %32 = phi double [ 2.000000e+00, %10 ], [ %24, %22 ], [ %24, %27 ]
  %33 = call double @sqrt(double %13) #4
  %34 = fcmp olt double %33, %32
  br i1 %34, label %35, label %39

35:                                               ; preds = %31
  %36 = sext i32 %11 to i64
  %37 = getelementptr inbounds [10000 x i32], [10000 x i32]* %2, i64 0, i64 %36
  store i32 %12, i32* %37, align 4, !tbaa !5
  %38 = add nsw i32 %11, 1
  br label %39

39:                                               ; preds = %31, %35
  %40 = phi i32 [ %38, %35 ], [ %11, %31 ]
  %41 = add nuw nsw i32 %12, 1
  %42 = load i32, i32* %1, align 4, !tbaa !5
  %43 = icmp slt i32 %12, %42
  br i1 %43, label %10, label %19, !llvm.loop !11

44:                                               ; preds = %19, %54
  %45 = phi i32 [ %21, %19 ], [ %49, %54 ]
  %46 = phi i64 [ 0, %19 ], [ %47, %54 ]
  %47 = add nuw nsw i64 %46, 1
  %48 = getelementptr inbounds [10000 x i32], [10000 x i32]* %2, i64 0, i64 %47
  %49 = load i32, i32* %48, align 4, !tbaa !5
  %50 = sub nsw i32 %49, %45
  %51 = icmp eq i32 %50, 2
  br i1 %51, label %52, label %54

52:                                               ; preds = %44
  %53 = call i32 (i8*, ...) @printf(i8* nonnull dereferenceable(1) getelementptr inbounds ([7 x i8], [7 x i8]* @.str.2, i64 0, i64 0), i32 %45, i32 %49)
  br label %54

54:                                               ; preds = %44, %52
  %55 = icmp eq i64 %47, 10001
  br i1 %55, label %56, label %44, !llvm.loop !12

56:                                               ; preds = %54
  %57 = load %struct._IO_FILE*, %struct._IO_FILE** @stdin, align 8, !tbaa !13
  %58 = call i32 @getc(%struct._IO_FILE* %57) #4
  %59 = load %struct._IO_FILE*, %struct._IO_FILE** @stdin, align 8, !tbaa !13
  %60 = call i32 @getc(%struct._IO_FILE* %59) #4
  br label %61

61:                                               ; preds = %56, %8
  call void @llvm.lifetime.end.p0i8(i64 40000, i8* nonnull %4) #4
  call void @llvm.lifetime.end.p0i8(i64 4, i8* nonnull %3) #4
  ret i32 0
}

; Function Attrs: argmemonly mustprogress nofree nosync nounwind willreturn
declare void @llvm.lifetime.start.p0i8(i64 immarg, i8* nocapture) #1

; Function Attrs: nofree nounwind
declare noundef i32 @__isoc99_scanf(i8* nocapture noundef readonly, ...) local_unnamed_addr #2

; Function Attrs: nofree nounwind
declare noundef i32 @printf(i8* nocapture noundef readonly, ...) local_unnamed_addr #2

; Function Attrs: mustprogress nofree nounwind willreturn
declare double @sqrt(double) local_unnamed_addr #3

; Function Attrs: argmemonly mustprogress nofree nosync nounwind willreturn
declare void @llvm.lifetime.end.p0i8(i64 immarg, i8* nocapture) #1

; Function Attrs: nofree nounwind
declare noundef i32 @getc(%struct._IO_FILE* nocapture noundef) local_unnamed_addr #2


!llvm.module.flags = !{!0, !1, !2, !3}
!llvm.ident = !{!4}

!0 = !{i32 1, !"wchar_size", i32 4}
!1 = !{i32 7, !"PIC Level", i32 2}
!2 = !{i32 7, !"PIE Level", i32 2}
!3 = !{i32 7, !"uwtable", i32 1}
!4 = !{!"clang version 13.0.0"}
!5 = !{!6, !6, i64 0}
!6 = !{!"int", !7, i64 0}
!7 = !{!"omnipotent char", !8, i64 0}
!8 = !{!"Simple C/C++ TBAA"}
!9 = distinct !{!9, !10}
!10 = !{!"llvm.loop.mustprogress"}
!11 = distinct !{!11, !10}
!12 = distinct !{!12, !10}
!13 = !{!14, !14, i64 0}
!14 = !{!"any pointer", !7, i64 0}
